#include <math.h>
#include <stdio.h>
#include <stdlib.h>
#include <string.h>

int main()
{
	int i=0,n;
	char str[101];
	gets(str);
	n=strlen(str);
	do
	{if (str[i]==' ' && str[i-1]==' ')
		{i++;
		 continue;
		}
	 printf("%c",str[i]);
	 i++;
	}while(i<n);
	return 0;
}
