; ModuleID = 'source-C-CXX/25/740.c'
source_filename = "source-C-CXX/25/740.c"
target datalayout = "e-m:e-p270:32:32-p271:32:32-p272:64:64-i64:64-f80:128-n8:16:32:64-S128"
target triple = "x86_64-pc-linux-gnu"

; Function Attrs: nounwind sspstrong uwtable
define dso_local i32 @main() local_unnamed_addr #0 {
  %1 = alloca [101 x i8], align 16
  %2 = getelementptr inbounds [101 x i8], [101 x i8]* %1, i64 0, i64 0
  call void @llvm.lifetime.start.p0i8(i64 101, i8* nonnull %2) #6
  %3 = call i32 (i8*, ...) bitcast (i32 (...)* @gets to i32 (i8*, ...)*)(i8* nonnull %2) #6
  %4 = call i64 @strlen(i8* noundef nonnull %2) #7
  %5 = trunc i64 %4 to i32
  %6 = call i32 @llvm.smax.i32(i32 %5, i32 1)
  %7 = zext i32 %6 to i64
  br label %8

8:                                                ; preds = %21, %0
  %9 = phi i64 [ %22, %21 ], [ 0, %0 ]
  %10 = getelementptr inbounds [101 x i8], [101 x i8]* %1, i64 0, i64 %9
  %11 = load i8, i8* %10, align 1, !tbaa !5
  %12 = icmp eq i8 %11, 32
  br i1 %12, label %13, label %18

13:                                               ; preds = %8
  %14 = add nsw i64 %9, -1
  %15 = getelementptr inbounds [101 x i8], [101 x i8]* %1, i64 0, i64 %14
  %16 = load i8, i8* %15, align 1, !tbaa !5
  %17 = icmp eq i8 %16, 32
  br i1 %17, label %21, label %18

18:                                               ; preds = %13, %8
  %19 = sext i8 %11 to i32
  %20 = call i32 @putchar(i32 %19)
  br label %21

21:                                               ; preds = %13, %18
  %22 = add nuw nsw i64 %9, 1
  %23 = icmp eq i64 %22, %7
  br i1 %23, label %24, label %8, !llvm.loop !8

24:                                               ; preds = %21
  call void @llvm.lifetime.end.p0i8(i64 101, i8* nonnull %2) #6
  ret i32 0
}

; Function Attrs: argmemonly mustprogress nofree nosync nounwind willreturn
declare void @llvm.lifetime.start.p0i8(i64 immarg, i8* nocapture) #1

declare i32 @gets(...) local_unnamed_addr #2

; Function Attrs: argmemonly mustprogress nofree nounwind readonly willreturn
declare i64 @strlen(i8* nocapture) local_unnamed_addr #3

; Function Attrs: argmemonly mustprogress nofree nosync nounwind willreturn
declare void @llvm.lifetime.end.p0i8(i64 immarg, i8* nocapture) #1

; Function Attrs: nofree nounwind
declare noundef i32 @putchar(i32 noundef) local_unnamed_addr #4

; Function Attrs: nofree nosync nounwind readnone speculatable willreturn
declare i32 @llvm.smax.i32(i32, i32) #5


!llvm.module.flags = !{!0, !1, !2, !3}
!llvm.ident = !{!4}

!0 = !{i32 1, !"wchar_size", i32 4}
!1 = !{i32 7, !"PIC Level", i32 2}
!2 = !{i32 7, !"PIE Level", i32 2}
!3 = !{i32 7, !"uwtable", i32 1}
!4 = !{!"clang version 13.0.0"}
!5 = !{!6, !6, i64 0}
!6 = !{!"omnipotent char", !7, i64 0}
!7 = !{!"Simple C/C++ TBAA"}
!8 = distinct !{!8, !9}
!9 = !{!"llvm.loop.mustprogress"}
